(dp0
I1
(lp1
cnumpy.core.multiarray
scalar
p2
(cnumpy
dtype
p3
(S'f8'
p4
I0
I1
tp5
Rp6
(I3
S'<'
p7
NNNI-1
I-1
I0
tp8
bS'\x90\x11\x89\x03\n\xc0\x99@'
p9
tp10
Rp11
asI10
(lp12
g2
(g6
S'\x80_\x96\\\xd1\x86\x95@'
p13
tp14
Rp15
asI50
(lp16
g2
(g6
S"\x15aF\x02'%\x95@"
p17
tp18
Rp19
asI5
(lp20
g2
(g6
S'wkt\xe4j\x04\x97@'
p21
tp22
Rp23
as.