ccollections
defaultdict
p0
(c__builtin__
list
p1
tp2
Rp3
I16
(lp4
cnumpy.core.multiarray
scalar
p5
(cnumpy
dtype
p6
(S'f8'
p7
I0
I1
tp8
Rp9
(I3
S'<'
p10
NNNI-1
I-1
I0
tp11
bS'Y\xd3o b\x9b\x95@'
p12
tp13
Rp14
ag5
(g9
S'\xb9\x19\x05\xc7\xed\xba\x95@'
p15
tp16
Rp17
as.